	.file	"xycal.c"
	.text
.Ltext0:
	.file 0 "/home/bcskn/reps/XY" "xycal.c"
	.globl	z
	.section	.rodata
	.align 8
	.type	z, @object
	.size	z, 12
z:
	.long	0
	.long	0
	.long	1065353216
	.text
	.globl	dotp
	.type	dotp, @function
dotp:
.LFB6:
	.file 1 "xycal.c"
	.loc 1 18 1
	.cfi_startproc
	pushq	%rbp
	.cfi_def_cfa_offset 16
	.cfi_offset 6, -16
	movq	%rsp, %rbp
	.cfi_def_cfa_register 6
	movq	%rdi, -24(%rbp)
	movq	%rsi, -32(%rbp)
	.loc 1 20 12
	pxor	%xmm0, %xmm0
	movsd	%xmm0, -8(%rbp)
.LBB2:
	.loc 1 22 14
	movl	$0, -12(%rbp)
	.loc 1 22 5
	jmp	.L2
.L3:
	.loc 1 24 22 discriminator 3
	movl	-12(%rbp), %eax
	cltq
	leaq	0(,%rax,8), %rdx
	movq	-24(%rbp), %rax
	addq	%rdx, %rax
	movsd	(%rax), %xmm1
	.loc 1 24 27 discriminator 3
	movl	-12(%rbp), %eax
	cltq
	leaq	0(,%rax,8), %rdx
	movq	-32(%rbp), %rax
	addq	%rdx, %rax
	movsd	(%rax), %xmm0
	.loc 1 24 25 discriminator 3
	mulsd	%xmm1, %xmm0
	.loc 1 24 13 discriminator 3
	movsd	-8(%rbp), %xmm1
	addsd	%xmm1, %xmm0
	movsd	%xmm0, -8(%rbp)
	.loc 1 22 31 discriminator 3
	addl	$1, -12(%rbp)
.L2:
	.loc 1 22 24 discriminator 1
	cmpl	$2, -12(%rbp)
	jle	.L3
.LBE2:
	.loc 1 26 12
	movsd	-8(%rbp), %xmm0
	movq	%xmm0, %rax
	.loc 1 27 1
	movq	%rax, %xmm0
	popq	%rbp
	.cfi_def_cfa 7, 8
	ret
	.cfi_endproc
.LFE6:
	.size	dotp, .-dotp
	.globl	crossp
	.type	crossp, @function
crossp:
.LFB7:
	.loc 1 31 1
	.cfi_startproc
	pushq	%rbp
	.cfi_def_cfa_offset 16
	.cfi_offset 6, -16
	movq	%rsp, %rbp
	.cfi_def_cfa_register 6
	subq	$144, %rsp
	movq	%rdi, -120(%rbp)
	movq	%rsi, -128(%rbp)
	movq	%rdx, -136(%rbp)
	.loc 1 31 1
	movq	%fs:40, %rax
	movq	%rax, -8(%rbp)
	xorl	%eax, %eax
	.loc 1 41 12
	movl	$0, -100(%rbp)
	.loc 1 41 5
	jmp	.L6
.L7:
	.loc 1 45 21 discriminator 3
	movl	-100(%rbp), %eax
	cltq
	leaq	0(,%rax,8), %rdx
	movq	-120(%rbp), %rax
	addq	%rdx, %rax
	.loc 1 45 16 discriminator 3
	movsd	(%rax), %xmm0
	.loc 1 45 14 discriminator 3
	movl	-100(%rbp), %eax
	cltq
	movsd	%xmm0, -96(%rbp,%rax,8)
	.loc 1 46 21 discriminator 3
	movl	-100(%rbp), %eax
	cltq
	leaq	0(,%rax,8), %rdx
	movq	-128(%rbp), %rax
	addq	%rdx, %rax
	.loc 1 46 16 discriminator 3
	movsd	(%rax), %xmm0
	.loc 1 46 14 discriminator 3
	movl	-100(%rbp), %eax
	cltq
	movsd	%xmm0, -64(%rbp,%rax,8)
	.loc 1 41 27 discriminator 3
	addl	$1, -100(%rbp)
.L6:
	.loc 1 41 20 discriminator 1
	cmpl	$2, -100(%rbp)
	jle	.L7
	.loc 1 50 13
	movsd	-88(%rbp), %xmm1
	.loc 1 50 18
	movsd	-48(%rbp), %xmm0
	.loc 1 50 16
	mulsd	%xmm1, %xmm0
	.loc 1 50 25
	movsd	-80(%rbp), %xmm2
	.loc 1 50 30
	movsd	-56(%rbp), %xmm1
	.loc 1 50 28
	mulsd	%xmm2, %xmm1
	.loc 1 50 22
	subsd	%xmm1, %xmm0
	.loc 1 50 10
	movsd	%xmm0, -32(%rbp)
	.loc 1 51 13
	movsd	-80(%rbp), %xmm1
	.loc 1 51 18
	movsd	-64(%rbp), %xmm0
	.loc 1 51 16
	mulsd	%xmm1, %xmm0
	.loc 1 51 25
	movsd	-96(%rbp), %xmm2
	.loc 1 51 30
	movsd	-48(%rbp), %xmm1
	.loc 1 51 28
	mulsd	%xmm2, %xmm1
	.loc 1 51 22
	subsd	%xmm1, %xmm0
	.loc 1 51 10
	movsd	%xmm0, -24(%rbp)
	.loc 1 52 13
	movsd	-96(%rbp), %xmm1
	.loc 1 52 18
	movsd	-56(%rbp), %xmm0
	.loc 1 52 16
	mulsd	%xmm1, %xmm0
	.loc 1 52 25
	movsd	-88(%rbp), %xmm2
	.loc 1 52 30
	movsd	-64(%rbp), %xmm1
	.loc 1 52 28
	mulsd	%xmm2, %xmm1
	.loc 1 52 22
	subsd	%xmm1, %xmm0
	.loc 1 52 10
	movsd	%xmm0, -16(%rbp)
	.loc 1 56 12
	movl	$0, -100(%rbp)
	.loc 1 56 5
	jmp	.L8
.L9:
	.loc 1 58 14 discriminator 3
	movl	-100(%rbp), %eax
	cltq
	leaq	0(,%rax,8), %rdx
	movq	-136(%rbp), %rax
	addq	%rax, %rdx
	.loc 1 58 22 discriminator 3
	movl	-100(%rbp), %eax
	cltq
	movsd	-32(%rbp,%rax,8), %xmm0
	.loc 1 58 19 discriminator 3
	movsd	%xmm0, (%rdx)
	.loc 1 56 27 discriminator 3
	addl	$1, -100(%rbp)
.L8:
	.loc 1 56 20 discriminator 1
	cmpl	$2, -100(%rbp)
	jle	.L9
	.loc 1 60 1
	nop
	movq	-8(%rbp), %rax
	subq	%fs:40, %rax
	je	.L10
	call	__stack_chk_fail@PLT
.L10:
	leave
	.cfi_def_cfa 7, 8
	ret
	.cfi_endproc
.LFE7:
	.size	crossp, .-crossp
	.globl	sp2ca
	.type	sp2ca, @function
sp2ca:
.LFB8:
	.loc 1 63 1
	.cfi_startproc
	pushq	%rbp
	.cfi_def_cfa_offset 16
	.cfi_offset 6, -16
	movq	%rsp, %rbp
	.cfi_def_cfa_register 6
	subq	$80, %rsp
	movsd	%xmm0, -56(%rbp)
	movsd	%xmm1, -64(%rbp)
	movq	%rdi, -72(%rbp)
	.loc 1 63 1
	movq	%fs:40, %rax
	movq	%rax, -8(%rbp)
	xorl	%eax, %eax
	.loc 1 70 13
	movq	-64(%rbp), %rax
	movq	%rax, %xmm0
	call	cos@PLT
	movsd	%xmm0, -80(%rbp)
	.loc 1 70 24
	movq	-56(%rbp), %rax
	movq	%rax, %xmm0
	call	cos@PLT
	.loc 1 70 22
	mulsd	-80(%rbp), %xmm0
	.loc 1 70 11
	movsd	%xmm0, -32(%rbp)
	.loc 1 71 13
	movq	-64(%rbp), %rax
	movq	%rax, %xmm0
	call	cos@PLT
	movsd	%xmm0, -80(%rbp)
	.loc 1 71 24
	movq	-56(%rbp), %rax
	movq	%rax, %xmm0
	call	sin@PLT
	.loc 1 71 22
	mulsd	-80(%rbp), %xmm0
	.loc 1 71 11
	movsd	%xmm0, -24(%rbp)
	.loc 1 72 13
	movq	-64(%rbp), %rax
	movq	%rax, %xmm0
	call	sin@PLT
	movq	%xmm0, %rax
	.loc 1 72 11
	movq	%rax, -16(%rbp)
.LBB3:
	.loc 1 75 14
	movl	$0, -36(%rbp)
	.loc 1 75 5
	jmp	.L12
.L13:
	.loc 1 77 15 discriminator 3
	movl	-36(%rbp), %eax
	cltq
	leaq	0(,%rax,8), %rdx
	movq	-72(%rbp), %rax
	addq	%rax, %rdx
	.loc 1 77 24 discriminator 3
	movl	-36(%rbp), %eax
	cltq
	movsd	-32(%rbp,%rax,8), %xmm0
	.loc 1 77 20 discriminator 3
	movsd	%xmm0, (%rdx)
	.loc 1 75 31 discriminator 3
	addl	$1, -36(%rbp)
.L12:
	.loc 1 75 24 discriminator 1
	cmpl	$2, -36(%rbp)
	jle	.L13
.LBE3:
	.loc 1 79 1
	nop
	movq	-8(%rbp), %rax
	subq	%fs:40, %rax
	je	.L14
	call	__stack_chk_fail@PLT
.L14:
	leave
	.cfi_def_cfa 7, 8
	ret
	.cfi_endproc
.LFE8:
	.size	sp2ca, .-sp2ca
	.globl	deg2rad
	.type	deg2rad, @function
deg2rad:
.LFB9:
	.loc 1 82 1
	.cfi_startproc
	pushq	%rbp
	.cfi_def_cfa_offset 16
	.cfi_offset 6, -16
	movq	%rsp, %rbp
	.cfi_def_cfa_register 6
	movsd	%xmm0, -8(%rbp)
	.loc 1 84 17
	movsd	-8(%rbp), %xmm0
	movsd	.LC1(%rip), %xmm2
	movapd	%xmm0, %xmm1
	divsd	%xmm2, %xmm1
	.loc 1 84 26
	movsd	.LC2(%rip), %xmm0
	mulsd	%xmm1, %xmm0
	movq	%xmm0, %rax
	.loc 1 85 1
	movq	%rax, %xmm0
	popq	%rbp
	.cfi_def_cfa 7, 8
	ret
	.cfi_endproc
.LFE9:
	.size	deg2rad, .-deg2rad
	.section	.rodata
.LC3:
	.string	"[ xyPik v0.1-alpha ]"
	.align 8
.LC4:
	.string	"No XY angle entered, defaulting to 90 degrees"
.LC6:
	.string	"%lf"
.LC7:
	.string	"ERROR: ILLEGAL INPUT"
	.align 8
.LC8:
	.string	"USE                xypik <Azimuth Angle> <Elevation Angle> <(opt) XY Angle> \n                You don't need to enter the XY angle if it's 90 degrees"
.LC9:
	.string	"Azimuth angle: %.2f radians\n"
	.align 8
.LC10:
	.string	"Elevation angle: %.2f radians\n"
	.align 8
.LC11:
	.string	"XY joint angle: %.2f radians.\n"
.LC16:
	.string	"%f"
	.text
	.globl	main
	.type	main, @function
main:
.LFB10:
	.loc 1 88 1
	.cfi_startproc
	pushq	%rbp
	.cfi_def_cfa_offset 16
	.cfi_offset 6, -16
	movq	%rsp, %rbp
	.cfi_def_cfa_register 6
	pushq	%rbx
	subq	$296, %rsp
	.cfi_offset 3, -24
	movl	%edi, -276(%rbp)
	movq	%rsi, -288(%rbp)
	.loc 1 88 1
	movq	%fs:40, %rax
	movq	%rax, -24(%rbp)
	xorl	%eax, %eax
	.loc 1 94 5
	leaq	.LC3(%rip), %rax
	movq	%rax, %rdi
	call	puts@PLT
	.loc 1 97 8
	cmpl	$3, -276(%rbp)
	jne	.L18
	.loc 1 101 9
	leaq	.LC4(%rip), %rax
	movq	%rax, %rdi
	call	puts@PLT
	.loc 1 102 13
	movsd	.LC5(%rip), %xmm0
	movsd	%xmm0, -272(%rbp)
	jmp	.L19
.L18:
	.loc 1 105 13
	cmpl	$4, -276(%rbp)
	jne	.L20
	.loc 1 110 20
	movq	-288(%rbp), %rax
	addq	$24, %rax
	.loc 1 110 9
	movq	(%rax), %rax
	leaq	-272(%rbp), %rdx
	leaq	.LC6(%rip), %rcx
	movq	%rcx, %rsi
	movq	%rax, %rdi
	movl	$0, %eax
	call	__isoc99_sscanf@PLT
	.loc 1 111 15
	movq	-272(%rbp), %rax
	movq	%rax, %xmm0
	call	deg2rad
	movq	%xmm0, %rax
	.loc 1 111 13
	movq	%rax, -272(%rbp)
	jmp	.L19
.L20:
	.loc 1 116 9
	leaq	.LC7(%rip), %rax
	movq	%rax, %rdi
	call	puts@PLT
	.loc 1 117 9
	leaq	.LC8(%rip), %rax
	movq	%rax, %rdi
	call	puts@PLT
	.loc 1 120 16
	movl	$0, %eax
	jmp	.L22
.L19:
	.loc 1 126 16
	movq	-288(%rbp), %rax
	addq	$8, %rax
	.loc 1 126 5
	movq	(%rax), %rax
	leaq	-264(%rbp), %rdx
	leaq	.LC6(%rip), %rcx
	movq	%rcx, %rsi
	movq	%rax, %rdi
	movl	$0, %eax
	call	__isoc99_sscanf@PLT
	.loc 1 127 16
	movq	-288(%rbp), %rax
	addq	$16, %rax
	.loc 1 127 5
	movq	(%rax), %rax
	leaq	-256(%rbp), %rdx
	leaq	.LC6(%rip), %rcx
	movq	%rcx, %rsi
	movq	%rax, %rdi
	movl	$0, %eax
	call	__isoc99_sscanf@PLT
	.loc 1 128 23
	movq	-264(%rbp), %rax
	movq	%rax, %xmm0
	call	deg2rad
	movq	%xmm0, %rax
	movq	%rax, -232(%rbp)
	.loc 1 129 23
	movq	-256(%rbp), %rax
	movq	%rax, %xmm0
	call	deg2rad
	movq	%xmm0, %rax
	movq	%rax, -224(%rbp)
	.loc 1 130 18
	movsd	-272(%rbp), %xmm0
	movsd	%xmm0, -216(%rbp)
	.loc 1 131 5
	movq	-232(%rbp), %rax
	movq	%rax, %xmm0
	leaq	.LC9(%rip), %rax
	movq	%rax, %rdi
	movl	$1, %eax
	call	printf@PLT
	.loc 1 132 5
	movq	-224(%rbp), %rax
	movq	%rax, %xmm0
	leaq	.LC10(%rip), %rax
	movq	%rax, %rdi
	movl	$1, %eax
	call	printf@PLT
	.loc 1 133 5
	movq	-216(%rbp), %rax
	movq	%rax, %xmm0
	leaq	.LC11(%rip), %rax
	movq	%rax, %rdi
	movl	$1, %eax
	call	printf@PLT
	.loc 1 136 39
	leaq	-112(%rbp), %rax
	movq	%rax, -208(%rbp)
	.loc 1 140 5
	movq	-208(%rbp), %rdx
	movsd	-224(%rbp), %xmm0
	movq	-232(%rbp), %rax
	movq	%rdx, %rdi
	movapd	%xmm0, %xmm1
	movq	%rax, %xmm0
	call	sp2ca
	.loc 1 143 20
	movq	-216(%rbp), %rax
	movq	%rax, %xmm0
	call	cos@PLT
	movq	%xmm0, %rbx
	.loc 1 143 28
	movq	-216(%rbp), %rax
	movq	%rax, %xmm0
	call	sin@PLT
	movapd	%xmm0, %xmm1
	.loc 1 143 12
	movq	%rbx, %xmm0
	divsd	%xmm1, %xmm0
	movsd	%xmm0, -200(%rbp)
	.loc 1 144 25
	movsd	-112(%rbp), %xmm0
	.loc 1 144 28
	mulsd	-200(%rbp), %xmm0
	.loc 1 144 12
	movq	.LC12(%rip), %xmm1
	xorpd	%xmm1, %xmm0
	movsd	%xmm0, -192(%rbp)
	.loc 1 146 16
	movq	-112(%rbp), %rax
	movsd	.LC13(%rip), %xmm0
	movapd	%xmm0, %xmm1
	movq	%rax, %xmm0
	call	pow@PLT
	movsd	%xmm0, -296(%rbp)
	.loc 1 146 31
	movsd	.LC13(%rip), %xmm0
	movq	-200(%rbp), %rax
	movapd	%xmm0, %xmm1
	movq	%rax, %xmm0
	call	pow@PLT
	.loc 1 146 30
	movapd	%xmm0, %xmm5
	mulsd	-296(%rbp), %xmm5
	movsd	%xmm5, -296(%rbp)
	.loc 1 146 44
	movq	-104(%rbp), %rax
	movsd	.LC13(%rip), %xmm0
	movapd	%xmm0, %xmm1
	movq	%rax, %xmm0
	call	pow@PLT
	.loc 1 146 43
	movsd	-296(%rbp), %xmm5
	subsd	%xmm0, %xmm5
	movsd	%xmm5, -296(%rbp)
	.loc 1 146 58
	movq	-96(%rbp), %rax
	movsd	.LC13(%rip), %xmm0
	movapd	%xmm0, %xmm1
	movq	%rax, %xmm0
	call	pow@PLT
	.loc 1 146 57
	movsd	-296(%rbp), %xmm1
	subsd	%xmm0, %xmm1
	.loc 1 146 9
	movq	%xmm1, %rax
	pxor	%xmm0, %xmm0
	movapd	%xmm0, %xmm1
	movq	%rax, %xmm0
	call	csqrt@PLT
	movq	%xmm0, %rax
	movq	%rax, %xmm0
	.loc 1 145 12
	movsd	%xmm0, -184(%rbp)
	.loc 1 147 12
	movsd	-192(%rbp), %xmm0
	addsd	-184(%rbp), %xmm0
	movsd	%xmm0, -176(%rbp)
	.loc 1 148 12
	movsd	-192(%rbp), %xmm0
	subsd	-184(%rbp), %xmm0
	movsd	%xmm0, -168(%rbp)
	.loc 1 149 42
	movsd	-96(%rbp), %xmm0
	.loc 1 149 29
	movsd	-104(%rbp), %xmm1
	.loc 1 149 33
	pxor	%xmm2, %xmm2
	mulsd	%xmm0, %xmm2
	subsd	%xmm2, %xmm1
	movsd	%xmm1, -248(%rbp)
	movq	.LC12(%rip), %xmm1
	xorpd	%xmm1, %xmm0
	movsd	%xmm0, -240(%rbp)
	.loc 1 149 20
	movsd	-240(%rbp), %xmm0
	movsd	-248(%rbp), %xmm1
	movsd	%xmm1, -128(%rbp)
	movsd	%xmm0, -120(%rbp)
	.loc 1 151 31
	movsd	-240(%rbp), %xmm1
	movsd	-248(%rbp), %xmm0
	movq	-176(%rbp), %rax
	movapd	%xmm1, %xmm3
	movapd	%xmm0, %xmm2
	pxor	%xmm1, %xmm1
	movq	%rax, %xmm0
	call	__divdc3@PLT
	movq	%xmm0, %rax
	movapd	%xmm1, %xmm0
	movq	%xmm0, %rdx
	movq	%rdx, %xmm1
	movq	%rax, %xmm0
	call	clog@PLT
	movq	%xmm0, %rax
	movapd	%xmm1, %xmm0
	movq	%xmm0, %rdx
	movq	%rdx, %xmm4
	.loc 1 151 29
	movsd	.LC14(%rip), %xmm1
	movsd	.LC15(%rip), %xmm0
	movapd	%xmm1, %xmm3
	movapd	%xmm0, %xmm2
	movapd	%xmm4, %xmm1
	movq	%rax, %xmm0
	call	__muldc3@PLT
	movq	%xmm0, %rax
	movq	%rax, %xmm0
	.loc 1 151 12
	movsd	%xmm0, -160(%rbp)
	.loc 1 152 31
	movsd	-240(%rbp), %xmm1
	movsd	-248(%rbp), %xmm0
	movq	-168(%rbp), %rax
	movapd	%xmm1, %xmm3
	movapd	%xmm0, %xmm2
	pxor	%xmm1, %xmm1
	movq	%rax, %xmm0
	call	__divdc3@PLT
	movq	%xmm0, %rax
	movapd	%xmm1, %xmm0
	movq	%xmm0, %rdx
	movq	%rdx, %xmm1
	movq	%rax, %xmm0
	call	clog@PLT
	movq	%xmm0, %rax
	movapd	%xmm1, %xmm0
	movq	%xmm0, %rdx
	movq	%rdx, %xmm4
	.loc 1 152 29
	movsd	.LC14(%rip), %xmm1
	movsd	.LC15(%rip), %xmm0
	movapd	%xmm1, %xmm3
	movapd	%xmm0, %xmm2
	movapd	%xmm4, %xmm1
	movq	%rax, %xmm0
	call	__muldc3@PLT
	movq	%xmm0, %rax
	movq	%rax, %xmm0
	.loc 1 152 12
	movsd	%xmm0, -152(%rbp)
	.loc 1 154 5
	movq	-160(%rbp), %rax
	movq	%rax, %xmm0
	leaq	.LC16(%rip), %rax
	movq	%rax, %rdi
	movl	$1, %eax
	call	printf@PLT
	.loc 1 157 12
	movsd	.LC17(%rip), %xmm0
	movsd	%xmm0, -80(%rbp)
	pxor	%xmm0, %xmm0
	movsd	%xmm0, -72(%rbp)
	pxor	%xmm0, %xmm0
	movsd	%xmm0, -64(%rbp)
	.loc 1 159 12
	movsd	.LC18(%rip), %xmm0
	movsd	%xmm0, -48(%rbp)
	movsd	.LC19(%rip), %xmm0
	movsd	%xmm0, -40(%rbp)
	movsd	.LC20(%rip), %xmm0
	movsd	%xmm0, -32(%rbp)
	.loc 1 159 43
	leaq	-48(%rbp), %rax
	movq	%rax, -144(%rbp)
	.loc 1 160 22
	leaq	-48(%rbp), %rax
	movq	%rax, -136(%rbp)
	.loc 1 191 12
	movl	$0, %eax
.L22:
	.loc 1 192 1 discriminator 1
	movq	-24(%rbp), %rdx
	subq	%fs:40, %rdx
	je	.L23
	.loc 1 192 1 is_stmt 0
	call	__stack_chk_fail@PLT
.L23:
	movq	-8(%rbp), %rbx
	leave
	.cfi_def_cfa 7, 8
	ret
	.cfi_endproc
.LFE10:
	.size	main, .-main
	.section	.rodata
	.align 8
.LC1:
	.long	0
	.long	1081507840
	.align 8
.LC2:
	.long	1413754136
	.long	1075388923
	.align 8
.LC5:
	.long	1841940611
	.long	1071931184
	.align 16
.LC12:
	.long	0
	.long	-2147483648
	.long	0
	.long	0
	.align 8
.LC13:
	.long	0
	.long	1073741824
	.align 8
.LC14:
	.long	0
	.long	-1074790400
	.align 8
.LC15:
	.long	0
	.long	-2147483648
	.align 8
.LC17:
	.long	0
	.long	1072693248
	.align 8
.LC18:
	.long	0
	.long	1076101120
	.align 8
.LC19:
	.long	0
	.long	1075970048
	.align 8
.LC20:
	.long	0
	.long	1075838976
	.text
.Letext0:
	.file 2 "/usr/include/bits/cmathcalls.h"
	.file 3 "/usr/include/stdio.h"
	.file 4 "/usr/include/bits/mathcalls.h"
	.section	.note.GNU-stack,"",@progbits
